; Function Attrs: nounwind memory(readwrite, argmem: read) uwtable
define noalias noundef ptr @OSQPVectorf_copy_new(ptr nocapture noundef readonly %0) local_unnamed_addr #1 {
  %2 = getelementptr inbounds i8, ptr %0, i64 8
  %3 = load i64, ptr %2, align 8
  %4 = tail call noalias dereferenceable_or_null(16) ptr @malloc(i64 noundef 16) #18
  %.not.i = icmp eq ptr %4, null
  br i1 %.not.i, label %OSQPVectorf_copy.exit, label %5

5:                                                ; preds = %1
  %6 = getelementptr inbounds i8, ptr %4, i64 8
  store i64 %3, ptr %6, align 8
  %.not11.i = icmp eq i64 %3, 0
  br i1 %.not11.i, label %OSQPVectorf_malloc.exit.thread, label %7

7:                                                ; preds = %5
  %8 = shl i64 %3, 3
  %9 = tail call noalias ptr @malloc(i64 noundef %8) #18
  store ptr %9, ptr %4, align 8
  %.not12.i = icmp eq ptr %9, null
  br i1 %.not12.i, label %10, label %OSQPVectorf_malloc.exit

10:                                               ; preds = %7
  tail call void @free(ptr noundef nonnull %4) #19
  br label %OSQPVectorf_copy.exit

OSQPVectorf_malloc.exit.thread:                   ; preds = %5
  store ptr null, ptr %4, align 8
  br label %OSQPVectorf_copy.exit

OSQPVectorf_malloc.exit:                          ; preds = %7
  %11 = load ptr, ptr %0, align 8
  %12 = icmp sgt i64 %3, 0
  br i1 %12, label %.lr.ph.i.i, label %OSQPVectorf_copy.exit

.lr.ph.i.i:                                       ; preds = %OSQPVectorf_malloc.exit, %.lr.ph.i.i
  %.08.i.i = phi i64 [ %16, %.lr.ph.i.i ], [ 0, %OSQPVectorf_malloc.exit ]
  %13 = getelementptr inbounds double, ptr %11, i64 %.08.i.i
  %14 = load double, ptr %13, align 8
  %15 = getelementptr inbounds double, ptr %9, i64 %.08.i.i
  store double %14, ptr %15, align 8
  %16 = add nuw nsw i64 %.08.i.i, 1
  %exitcond.not.i.i = icmp eq i64 %16, %3
  br i1 %exitcond.not.i.i, label %OSQPVectorf_copy.exit, label %.lr.ph.i.i, !llvm.loop !6

OSQPVectorf_copy.exit:                            ; preds = %.lr.ph.i.i, %OSQPVectorf_malloc.exit.thread, %1, %10, %OSQPVectorf_malloc.exit
  %.0.i7 = phi ptr [ %4, %OSQPVectorf_malloc.exit ], [ null, %10 ], [ null, %1 ], [ %4, %OSQPVectorf_malloc.exit.thread ], [ %4, %.lr.ph.i.i ]
  ret ptr %.0.i7
}